target datalayout = "e-m:e-p270:32:32-p271:32:32-p272:64:64-i64:64-i128:128-f80:128-n8:16:32:64-S128"
target triple = "x86_64-pc-linux-gnu"

%struct.H5FD_onion_archival_index_t = type { i8, i32, i64, ptr }
%struct.H5FD_onion_index_entry_t = type { i64, i64 }

@H5FD_init_g = external global i8, align 1
@H5_libterm_g = external global i8, align 1

; Function Attrs: nounwind uwtable
define zeroext i1 @H5FD__onion_archival_index_is_valid(ptr noundef %0) #0 {
  %2 = alloca i1, align 1
  %3 = alloca ptr, align 8
  %4 = alloca i8, align 1
  %5 = alloca i64, align 8
  %6 = alloca i32, align 4
  store ptr %0, ptr %3, align 8, !tbaa !56
  call void @llvm.lifetime.start.p0(i64 1, ptr %4) #9
  store i8 1, ptr %4, align 1, !tbaa !18
  %7 = load i8, ptr @H5FD_init_g, align 1, !tbaa !18, !range !20, !noundef !21
  %8 = trunc i8 %7 to i1
  br i1 %8, label %13, label %9

9:                                                ; preds = %1
  %10 = load i8, ptr @H5_libterm_g, align 1, !tbaa !18, !range !20, !noundef !21
  %11 = trunc i8 %10 to i1
  %12 = xor i1 %11, true
  br label %13

13:                                               ; preds = %9, %1
  %14 = phi i1 [ true, %1 ], [ %12, %9 ]
  %15 = xor i1 %14, true
  %16 = xor i1 %15, true
  %17 = zext i1 %16 to i32
  %18 = sext i32 %17 to i64
  %19 = call i64 @llvm.expect.i64(i64 %18, i64 1)
  %20 = icmp ne i64 %19, 0
  br i1 %20, label %21, label %84

21:                                               ; preds = %13
  %22 = load ptr, ptr %3, align 8, !tbaa !56
  %23 = getelementptr inbounds nuw %struct.H5FD_onion_archival_index_t, ptr %22, i32 0, i32 0
  %24 = load i8, ptr %23, align 8, !tbaa !58
  %25 = zext i8 %24 to i32
  %26 = icmp ne i32 1, %25
  br i1 %26, label %27, label %31

27:                                               ; preds = %21
  br label %28

28:                                               ; preds = %27
  store i8 0, ptr %4, align 1, !tbaa !18
  br label %83

29:                                               ; No predecessors!
  br label %30

30:                                               ; preds = %29
  br label %31

31:                                               ; preds = %30, %21
  %32 = load ptr, ptr %3, align 8, !tbaa !56
  %33 = getelementptr inbounds nuw %struct.H5FD_onion_archival_index_t, ptr %32, i32 0, i32 3
  %34 = load ptr, ptr %33, align 8, !tbaa !59
  %35 = icmp eq ptr null, %34
  br i1 %35, label %36, label %40

36:                                               ; preds = %31
  br label %37

37:                                               ; preds = %36
  store i8 0, ptr %4, align 1, !tbaa !18
  br label %83

38:                                               ; No predecessors!
  br label %39

39:                                               ; preds = %38
  br label %40

40:                                               ; preds = %39, %31
  %41 = load ptr, ptr %3, align 8, !tbaa !56
  %42 = getelementptr inbounds nuw %struct.H5FD_onion_archival_index_t, ptr %41, i32 0, i32 2
  %43 = load i64, ptr %42, align 8, !tbaa !60
  %44 = icmp ugt i64 %43, 1
  br i1 %44, label %45, label %82

45:                                               ; preds = %40
  call void @llvm.lifetime.start.p0(i64 8, ptr %5) #9
  store i64 1, ptr %5, align 8, !tbaa !12
  br label %46

46:                                               ; preds = %76, %45
  %47 = load i64, ptr %5, align 8, !tbaa !12
  %48 = load ptr, ptr %3, align 8, !tbaa !56
  %49 = getelementptr inbounds nuw %struct.H5FD_onion_archival_index_t, ptr %48, i32 0, i32 2
  %50 = load i64, ptr %49, align 8, !tbaa !60
  %51 = sub i64 %50, 1
  %52 = icmp ult i64 %47, %51
  br i1 %52, label %54, label %53

53:                                               ; preds = %46
  store i32 7, ptr %6, align 4
  br label %79

54:                                               ; preds = %46
  %55 = load ptr, ptr %3, align 8, !tbaa !56
  %56 = getelementptr inbounds nuw %struct.H5FD_onion_archival_index_t, ptr %55, i32 0, i32 3
  %57 = load ptr, ptr %56, align 8, !tbaa !59
  %58 = load i64, ptr %5, align 8, !tbaa !12
  %59 = add i64 %58, 1
  %60 = getelementptr inbounds nuw %struct.H5FD_onion_index_entry_t, ptr %57, i64 %59
  %61 = getelementptr inbounds nuw %struct.H5FD_onion_index_entry_t, ptr %60, i32 0, i32 0
  %62 = load i64, ptr %61, align 8, !tbaa !50
  %63 = load ptr, ptr %3, align 8, !tbaa !56
  %64 = getelementptr inbounds nuw %struct.H5FD_onion_archival_index_t, ptr %63, i32 0, i32 3
  %65 = load ptr, ptr %64, align 8, !tbaa !59
  %66 = load i64, ptr %5, align 8, !tbaa !12
  %67 = getelementptr inbounds nuw %struct.H5FD_onion_index_entry_t, ptr %65, i64 %66
  %68 = getelementptr inbounds nuw %struct.H5FD_onion_index_entry_t, ptr %67, i32 0, i32 0
  %69 = load i64, ptr %68, align 8, !tbaa !50
  %70 = icmp ule i64 %62, %69
  br i1 %70, label %71, label %75

71:                                               ; preds = %54
  br label %72

72:                                               ; preds = %71
  store i8 0, ptr %4, align 1, !tbaa !18
  store i32 4, ptr %6, align 4
  br label %79

73:                                               ; No predecessors!
  br label %74

74:                                               ; preds = %73
  br label %75

75:                                               ; preds = %74, %54
  br label %76

76:                                               ; preds = %75
  %77 = load i64, ptr %5, align 8, !tbaa !12
  %78 = add i64 %77, 1
  store i64 %78, ptr %5, align 8, !tbaa !12
  br label %46, !llvm.loop !61

79:                                               ; preds = %72, %53
  call void @llvm.lifetime.end.p0(i64 8, ptr %5) #9
  %80 = load i32, ptr %6, align 4
  switch i32 %80, label %87 [
    i32 7, label %81
    i32 4, label %83
  ]

81:                                               ; preds = %79
  br label %82

82:                                               ; preds = %81, %40
  br label %83

83:                                               ; preds = %82, %79, %37, %28
  br label %84

84:                                               ; preds = %83, %13
  %85 = load i8, ptr %4, align 1, !tbaa !18, !range !20, !noundef !21
  %86 = trunc i8 %85 to i1
  store i1 %86, ptr %2, align 1
  store i32 1, ptr %6, align 4
  br label %87

87:                                               ; preds = %84, %79
  call void @llvm.lifetime.end.p0(i64 1, ptr %4) #9
  %88 = load i1, ptr %2, align 1
  ret i1 %88
}