; Function Attrs: nofree norecurse nosync nounwind memory(read, inaccessiblemem: none) uwtable
define noundef zeroext i1 @H5FD__onion_archival_index_is_valid(ptr noundef readonly captures(none) %0) local_unnamed_addr #7 {
  %2 = load i8, ptr @H5FD_init_g, align 1, !tbaa !3, !range !7, !noundef !8
  %3 = trunc nuw i8 %2 to i1
  %4 = load i8, ptr @H5_libterm_g, align 1, !range !7
  %5 = trunc nuw i8 %4 to i1
  %6 = xor i1 %5, true
  %7 = select i1 %3, i1 true, i1 %6
  br i1 %7, label %8, label %.loopexit, !prof !9

8:                                                ; preds = %1
  %9 = load i8, ptr %0, align 8, !tbaa !53
  %.not = icmp eq i8 %9, 1
  br i1 %.not, label %10, label %.loopexit

10:                                               ; preds = %8
  %11 = getelementptr inbounds nuw i8, ptr %0, i64 16
  %12 = load ptr, ptr %11, align 8, !tbaa !54
  %13 = icmp eq ptr %12, null
  br i1 %13, label %.loopexit, label %14

14:                                               ; preds = %10
  %15 = getelementptr inbounds nuw i8, ptr %0, i64 8
  %16 = load i64, ptr %15, align 8, !tbaa !55
  %17 = icmp ugt i64 %16, 1
  br i1 %17, label %.preheader, label %.loopexit

.preheader:                                       ; preds = %14
  %18 = add i64 %16, -1
  br label %19

19:                                               ; preds = %.preheader, %20
  %.012 = phi i64 [ %21, %20 ], [ 1, %.preheader ]
  %exitcond.not = icmp eq i64 %.012, %18
  br i1 %exitcond.not, label %.loopexit, label %20

20:                                               ; preds = %19
  %21 = add i64 %.012, 1
  %22 = getelementptr inbounds nuw %struct.H5FD_onion_index_entry_t, ptr %12, i64 %21
  %23 = load i64, ptr %22, align 8, !tbaa !47
  %24 = getelementptr inbounds nuw %struct.H5FD_onion_index_entry_t, ptr %12, i64 %.012
  %25 = load i64, ptr %24, align 8, !tbaa !47
  %.not15 = icmp ugt i64 %23, %25
  br i1 %.not15, label %19, label %.loopexit, !llvm.loop !56

.loopexit:                                        ; preds = %20, %19, %1, %14, %8, %10
  %.013 = phi i1 [ true, %14 ], [ true, %1 ], [ false, %8 ], [ false, %10 ], [ %exitcond.not, %19 ], [ %exitcond.not, %20 ]
  ret i1 %.013
}